target datalayout = "e-m:e-p270:32:32-p271:32:32-p272:64:64-i64:64-i128:128-f80:128-n8:16:32:64-S128"
target triple = "x86_64-pc-linux-gnu"

%struct.PyVarObject = type { %struct._object, i64 }
%struct._object = type { i64, ptr }
%"struct.std::once_flag" = type { i32 }
%"class.std::__cxx11::basic_string" = type { %"struct.std::__cxx11::basic_string<char>::_Alloc_hider", i64, %union.anon }
%"struct.std::__cxx11::basic_string<char>::_Alloc_hider" = type { ptr }
%union.anon = type { i64, [8 x i8] }
%"class.pybind11::object" = type { %"class.pybind11::handle" }
%"class.pybind11::handle" = type { ptr }
%"struct.pybind11::detail::npy_api" = type { ptr, ptr, ptr, ptr, ptr, ptr, ptr, ptr, ptr, ptr, ptr, ptr, ptr, ptr, ptr, ptr, ptr, ptr, ptr }
%"class.pybind11::gil_safe_call_once_and_store" = type <{ [152 x i8], %"struct.std::once_flag", i8, [3 x i8] }>
%"struct.pybind11::detail::numpy_type_info" = type { ptr, %"class.std::__cxx11::basic_string" }
%"struct.pybind11::detail::PyVoidScalarObject_Proxy" = type { %struct.PyVarObject, ptr, ptr, i32, ptr }

@_ZZN8pybind116detail7npy_api3getEvE7storage = linkonce_odr hidden global { [152 x i8], %"struct.std::once_flag", i8 } zeroinitializer, comdat, align 8
@_ZZN8pybind116detail19get_numpy_internalsEvE3ptr = linkonce_odr hidden global ptr null, comdat, align 8
@_ZTIZ27test_submodule_numpy_dtypesRN8pybind117module_EE21TrailingPaddingStruct = internal constant { ptr, ptr } { ptr getelementptr inbounds (ptr, ptr @_ZTVN10__cxxabiv117__class_type_infoE, i64 2), ptr @_ZTSZ27test_submodule_numpy_dtypesRN8pybind117module_EE21TrailingPaddingStruct }, align 8
@_ZZN8pybind116detail21npy_format_descriptorIZ27test_submodule_numpy_dtypesRNS_7module_EE21TrailingPaddingStructvE9dtype_ptrEvE3ptr = internal global ptr null, align 8
@_ZGVZN8pybind116detail21npy_format_descriptorIZ27test_submodule_numpy_dtypesRNS_7module_EE21TrailingPaddingStructvE9dtype_ptrEvE3ptr = internal global i64 0, align 8

; Function Attrs: mustprogress uwtable
define internal noundef ptr @_ZN8pybind116detail15numpy_internals13get_type_infoIZ27test_submodule_numpy_dtypesRNS_7module_EE21TrailingPaddingStructEEPNS0_15numpy_type_infoEb(ptr noundef nonnull align 8 dereferenceable(56) %0, i1 noundef zeroext %1) #1 align 2 {
  %3 = alloca ptr, align 8
  %4 = alloca i8, align 1
  store ptr %0, ptr %3, align 8
  %5 = zext i1 %1 to i8
  store i8 %5, ptr %4, align 1
  %6 = load ptr, ptr %3, align 8
  %7 = load i8, ptr %4, align 1
  %8 = trunc i8 %7 to i1
  %9 = call noundef ptr @_ZN8pybind116detail15numpy_internals13get_type_infoERKSt9type_infob(ptr noundef nonnull align 8 dereferenceable(56) %6, ptr noundef nonnull align 8 dereferenceable(16) @_ZTIZ27test_submodule_numpy_dtypesRN8pybind117module_EE21TrailingPaddingStruct, i1 noundef zeroext %8)
  ret ptr %9
}

; Function Attrs: mustprogress uwtable
define linkonce_odr hidden noundef nonnull align 8 dereferenceable(56) ptr @_ZN8pybind116detail19get_numpy_internalsEv() #1 comdat {
  %1 = load ptr, ptr @_ZZN8pybind116detail19get_numpy_internalsEvE3ptr, align 8
  %2 = icmp ne ptr %1, null
  br i1 %2, label %4, label %3

3:                                                ; preds = %0
  call void @_ZN8pybind116detail20load_numpy_internalsERPNS0_15numpy_internalsE(ptr noundef nonnull align 8 dereferenceable(8) @_ZZN8pybind116detail19get_numpy_internalsEvE3ptr)
  br label %4

4:                                                ; preds = %3, %0
  %5 = load ptr, ptr @_ZZN8pybind116detail19get_numpy_internalsEvE3ptr, align 8
  ret ptr %5
}

; Function Attrs: mustprogress nounwind uwtable
define linkonce_odr hidden void @_ZN8pybind116objectC2ENS_6handleENS0_8stolen_tE(ptr noundef nonnull align 8 dereferenceable(8) %0, ptr %1) unnamed_addr #0 comdat align 2 {
  %3 = alloca %"class.pybind11::handle", align 8
  %4 = alloca ptr, align 8
  %5 = getelementptr inbounds %"class.pybind11::handle", ptr %3, i32 0, i32 0
  store ptr %1, ptr %5, align 8
  store ptr %0, ptr %4, align 8
  %6 = load ptr, ptr %4, align 8
  call void @llvm.memcpy.p0.p0.i64(ptr align 8 %6, ptr align 8 %3, i64 8, i1 false)
  ret void
}

; Function Attrs: mustprogress nounwind uwtable
define internal noundef i32 @_ZL11_Py_IS_TYPEPK7_objectPK11_typeobject(ptr noundef %0, ptr noundef %1) #0 {
  %3 = alloca ptr, align 8
  %4 = alloca ptr, align 8
  store ptr %0, ptr %3, align 8
  store ptr %1, ptr %4, align 8
  %5 = load ptr, ptr %3, align 8
  %6 = getelementptr inbounds %struct._object, ptr %5, i32 0, i32 1
  %7 = load ptr, ptr %6, align 8
  %8 = load ptr, ptr %4, align 8
  %9 = icmp eq ptr %7, %8
  %10 = zext i1 %9 to i32
  ret i32 %10
}

; Function Attrs: mustprogress nounwind uwtable
define linkonce_odr hidden noundef nonnull align 8 dereferenceable(152) ptr @_ZN8pybind1128gil_safe_call_once_and_storeINS_6detail7npy_apiEE10get_storedEv(ptr noundef nonnull align 8 dereferenceable(157) %0) #0 comdat align 2 {
  %2 = alloca ptr, align 8
  store ptr %0, ptr %2, align 8
  %3 = load ptr, ptr %2, align 8
  %4 = getelementptr inbounds %"class.pybind11::gil_safe_call_once_and_store", ptr %3, i32 0, i32 0
  %5 = getelementptr inbounds [152 x i8], ptr %4, i64 0, i64 0
  ret ptr %5
}

; Function Attrs: mustprogress nounwind uwtable
define linkonce_odr hidden noundef nonnull align 8 dereferenceable(8) ptr @_ZN8pybind116handle3ptrEv(ptr noundef nonnull align 8 dereferenceable(8) %0) #0 comdat align 2 {
  %2 = alloca ptr, align 8
  store ptr %0, ptr %2, align 8
  %3 = load ptr, ptr %2, align 8
  %4 = getelementptr inbounds %"class.pybind11::handle", ptr %3, i32 0, i32 0
  ret ptr %4
}

; Function Attrs: mustprogress uwtable
define internal noundef ptr @_ZN8pybind116detail21npy_format_descriptorIZ27test_submodule_numpy_dtypesRNS_7module_EE21TrailingPaddingStructvE9dtype_ptrEv() #1 align 2 personality ptr @__gxx_personality_v0 {
  %1 = alloca ptr, align 8
  %2 = alloca i32, align 4
  %3 = load atomic i8, ptr @_ZGVZN8pybind116detail21npy_format_descriptorIZ27test_submodule_numpy_dtypesRNS_7module_EE21TrailingPaddingStructvE9dtype_ptrEvE3ptr acquire, align 8
  %4 = icmp eq i8 %3, 0
  br i1 %4, label %5, label %15, !prof !43

5:                                                ; preds = %0
  %6 = call i32 @__cxa_guard_acquire(ptr @_ZGVZN8pybind116detail21npy_format_descriptorIZ27test_submodule_numpy_dtypesRNS_7module_EE21TrailingPaddingStructvE9dtype_ptrEvE3ptr) #16
  %7 = icmp ne i32 %6, 0
  br i1 %7, label %8, label %15

8:                                                ; preds = %5
  %9 = invoke noundef nonnull align 8 dereferenceable(56) ptr @_ZN8pybind116detail19get_numpy_internalsEv()
          to label %10 unwind label %17

10:                                               ; preds = %8
  %11 = invoke noundef ptr @_ZN8pybind116detail15numpy_internals13get_type_infoIZ27test_submodule_numpy_dtypesRNS_7module_EE21TrailingPaddingStructEEPNS0_15numpy_type_infoEb(ptr noundef nonnull align 8 dereferenceable(56) %9, i1 noundef zeroext true)
          to label %12 unwind label %17

12:                                               ; preds = %10
  %13 = getelementptr inbounds %"struct.pybind11::detail::numpy_type_info", ptr %11, i32 0, i32 0
  %14 = load ptr, ptr %13, align 8
  store ptr %14, ptr @_ZZN8pybind116detail21npy_format_descriptorIZ27test_submodule_numpy_dtypesRNS_7module_EE21TrailingPaddingStructvE9dtype_ptrEvE3ptr, align 8
  call void @__cxa_guard_release(ptr @_ZGVZN8pybind116detail21npy_format_descriptorIZ27test_submodule_numpy_dtypesRNS_7module_EE21TrailingPaddingStructvE9dtype_ptrEvE3ptr) #16
  br label %15

15:                                               ; preds = %12, %5, %0
  %16 = load ptr, ptr @_ZZN8pybind116detail21npy_format_descriptorIZ27test_submodule_numpy_dtypesRNS_7module_EE21TrailingPaddingStructvE9dtype_ptrEvE3ptr, align 8
  ret ptr %16

17:                                               ; preds = %10, %8
  %18 = landingpad { ptr, i32 }
          cleanup
  %19 = extractvalue { ptr, i32 } %18, 0
  store ptr %19, ptr %1, align 8
  %20 = extractvalue { ptr, i32 } %18, 1
  store i32 %20, ptr %2, align 4
  call void @__cxa_guard_abort(ptr @_ZGVZN8pybind116detail21npy_format_descriptorIZ27test_submodule_numpy_dtypesRNS_7module_EE21TrailingPaddingStructvE9dtype_ptrEvE3ptr) #16
  br label %21

21:                                               ; preds = %17
  %22 = load ptr, ptr %1, align 8
  %23 = load i32, ptr %2, align 4
  %24 = insertvalue { ptr, i32 } poison, ptr %22, 0
  %25 = insertvalue { ptr, i32 } %24, i32 %23, 1
  resume { ptr, i32 } %25
}

; Function Attrs: mustprogress nounwind uwtable
define linkonce_odr hidden noundef zeroext i1 @_ZNK8pybind116handlecvbEv(ptr noundef nonnull align 8 dereferenceable(8) %0) #0 comdat align 2 {
  %2 = alloca ptr, align 8
  store ptr %0, ptr %2, align 8
  %3 = load ptr, ptr %2, align 8
  %4 = getelementptr inbounds %"class.pybind11::handle", ptr %3, i32 0, i32 0
  %5 = load ptr, ptr %4, align 8
  %6 = icmp ne ptr %5, null
  ret i1 %6
}

; Function Attrs: mustprogress uwtable
define linkonce_odr hidden void @_ZN8pybind1117reinterpret_stealINS_6objectEEET_NS_6handleE(ptr dead_on_unwind noalias writable sret(%"class.pybind11::object") align 8 %0, ptr %1) #1 comdat {
  %3 = alloca ptr, align 8
  %4 = alloca %"class.pybind11::handle", align 8
  %5 = alloca %"class.pybind11::handle", align 8
  store ptr %0, ptr %3, align 8
  %6 = getelementptr inbounds %"class.pybind11::handle", ptr %4, i32 0, i32 0
  store ptr %1, ptr %6, align 8
  call void @llvm.memcpy.p0.p0.i64(ptr align 8 %5, ptr align 8 %4, i64 8, i1 false)
  %7 = getelementptr inbounds %"class.pybind11::handle", ptr %5, i32 0, i32 0
  %8 = load ptr, ptr %7, align 8
  call void @_ZN8pybind116objectC2ENS_6handleENS0_8stolen_tE(ptr noundef nonnull align 8 dereferenceable(8) %0, ptr %8)
  ret void
}

; Function Attrs: mustprogress nounwind uwtable
define linkonce_odr hidden void @_ZN8pybind116handleC2IP7_objectTnNSt9enable_ifIXsr6detail25is_pyobj_ptr_or_nullptr_tIT_EE5valueEiE4typeELi0EEES5_(ptr noundef nonnull align 8 dereferenceable(8) %0, ptr noundef %1) unnamed_addr #0 comdat align 2 {
  %3 = alloca ptr, align 8
  %4 = alloca ptr, align 8
  store ptr %0, ptr %3, align 8
  store ptr %1, ptr %4, align 8
  %5 = load ptr, ptr %3, align 8
  %6 = getelementptr inbounds %"class.pybind11::handle", ptr %5, i32 0, i32 0
  %7 = load ptr, ptr %4, align 8
  store ptr %7, ptr %6, align 8
  ret void
}

; Function Attrs: mustprogress uwtable
define internal noundef i32 @_ZL19_PyObject_TypeCheckP7_objectP11_typeobject(ptr noundef %0, ptr noundef %1) #1 {
  %3 = alloca ptr, align 8
  %4 = alloca ptr, align 8
  store ptr %0, ptr %3, align 8
  store ptr %1, ptr %4, align 8
  %5 = load ptr, ptr %3, align 8
  %6 = load ptr, ptr %4, align 8
  %7 = call noundef i32 @_ZL11_Py_IS_TYPEPK7_objectPK11_typeobject(ptr noundef %5, ptr noundef %6)
  %8 = icmp ne i32 %7, 0
  br i1 %8, label %16, label %9

9:                                                ; preds = %2
  %10 = load ptr, ptr %3, align 8
  %11 = getelementptr inbounds %struct._object, ptr %10, i32 0, i32 1
  %12 = load ptr, ptr %11, align 8
  %13 = load ptr, ptr %4, align 8
  %14 = call i32 @PyType_IsSubtype(ptr noundef %12, ptr noundef %13)
  %15 = icmp ne i32 %14, 0
  br label %16

16:                                               ; preds = %9, %2
  %17 = phi i1 [ true, %2 ], [ %15, %9 ]
  %18 = zext i1 %17 to i32
  ret i32 %18
}

; Function Attrs: mustprogress uwtable
define linkonce_odr hidden noundef nonnull align 8 dereferenceable(152) ptr @_ZN8pybind116detail7npy_api3getEv() #1 comdat align 2 {
  %1 = call noundef nonnull align 8 dereferenceable(157) ptr @_ZN8pybind1128gil_safe_call_once_and_storeINS_6detail7npy_apiEE26call_once_and_store_resultIRFS2_vEEERS3_OT_(ptr noundef nonnull align 8 dereferenceable(157) @_ZZN8pybind116detail7npy_api3getEvE7storage, ptr noundef nonnull @_ZN8pybind116detail7npy_api6lookupEv)
  %2 = call noundef nonnull align 8 dereferenceable(152) ptr @_ZN8pybind1128gil_safe_call_once_and_storeINS_6detail7npy_apiEE10get_storedEv(ptr noundef nonnull align 8 dereferenceable(157) %1)
  ret ptr %2
}

; Function Attrs: mustprogress uwtable
define internal noundef zeroext i1 @_ZN8pybind116detail21npy_format_descriptorIZ27test_submodule_numpy_dtypesRNS_7module_EE21TrailingPaddingStructvE16direct_converterEP7_objectRPv(ptr noundef %0, ptr noundef nonnull align 8 dereferenceable(8) %1) #1 align 2 personality ptr @__gxx_personality_v0 {
  %3 = alloca i1, align 1
  %4 = alloca ptr, align 8
  %5 = alloca ptr, align 8
  %6 = alloca ptr, align 8
  %7 = alloca %"class.pybind11::object", align 8
  %8 = alloca %"class.pybind11::handle", align 8
  %9 = alloca ptr, align 8
  %10 = alloca i32, align 4
  %11 = alloca i32, align 4
  store ptr %0, ptr %4, align 8
  store ptr %1, ptr %5, align 8
  %12 = call noundef nonnull align 8 dereferenceable(152) ptr @_ZN8pybind116detail7npy_api3getEv()
  store ptr %12, ptr %6, align 8
  %13 = load ptr, ptr %4, align 8
  %14 = load ptr, ptr %6, align 8
  %15 = getelementptr inbounds %"struct.pybind11::detail::npy_api", ptr %14, i32 0, i32 7
  %16 = load ptr, ptr %15, align 8
  %17 = call noundef i32 @_ZL19_PyObject_TypeCheckP7_objectP11_typeobject(ptr noundef %13, ptr noundef %16)
  %18 = icmp ne i32 %17, 0
  br i1 %18, label %20, label %19

19:                                               ; preds = %2
  store i1 false, ptr %3, align 1
  br label %53

20:                                               ; preds = %2
  %21 = load ptr, ptr %6, align 8
  %22 = getelementptr inbounds %"struct.pybind11::detail::npy_api", ptr %21, i32 0, i32 9
  %23 = load ptr, ptr %22, align 8
  %24 = load ptr, ptr %4, align 8
  %25 = call noundef ptr %23(ptr noundef %24)
  call void @_ZN8pybind116handleC2IP7_objectTnNSt9enable_ifIXsr6detail25is_pyobj_ptr_or_nullptr_tIT_EE5valueEiE4typeELi0EEES5_(ptr noundef nonnull align 8 dereferenceable(8) %8, ptr noundef %25)
  %26 = getelementptr inbounds %"class.pybind11::handle", ptr %8, i32 0, i32 0
  %27 = load ptr, ptr %26, align 8
  call void @_ZN8pybind1117reinterpret_stealINS_6objectEEET_NS_6handleE(ptr dead_on_unwind writable sret(%"class.pybind11::object") align 8 %7, ptr %27)
  %28 = call noundef zeroext i1 @_ZNK8pybind116handlecvbEv(ptr noundef nonnull align 8 dereferenceable(8) %7)
  br i1 %28, label %29, label %49

29:                                               ; preds = %20
  %30 = load ptr, ptr %6, align 8
  %31 = getelementptr inbounds %"struct.pybind11::detail::npy_api", ptr %30, i32 0, i32 12
  %32 = load ptr, ptr %31, align 8
  %33 = invoke noundef ptr @_ZN8pybind116detail21npy_format_descriptorIZ27test_submodule_numpy_dtypesRNS_7module_EE21TrailingPaddingStructvE9dtype_ptrEv()
          to label %34 unwind label %44

34:                                               ; preds = %29
  %35 = call noundef nonnull align 8 dereferenceable(8) ptr @_ZN8pybind116handle3ptrEv(ptr noundef nonnull align 8 dereferenceable(8) %7)
  %36 = load ptr, ptr %35, align 8
  %37 = invoke noundef zeroext i1 %32(ptr noundef %33, ptr noundef %36)
          to label %38 unwind label %44

38:                                               ; preds = %34
  br i1 %37, label %39, label %48

39:                                               ; preds = %38
  %40 = load ptr, ptr %4, align 8
  %41 = getelementptr inbounds %"struct.pybind11::detail::PyVoidScalarObject_Proxy", ptr %40, i32 0, i32 1
  %42 = load ptr, ptr %41, align 8
  %43 = load ptr, ptr %5, align 8
  store ptr %42, ptr %43, align 8
  store i1 true, ptr %3, align 1
  store i32 1, ptr %11, align 4
  br label %50

44:                                               ; preds = %34, %29
  %45 = landingpad { ptr, i32 }
          cleanup
  %46 = extractvalue { ptr, i32 } %45, 0
  store ptr %46, ptr %9, align 8
  %47 = extractvalue { ptr, i32 } %45, 1
  store i32 %47, ptr %10, align 4
  call void @_ZN8pybind116objectD2Ev(ptr noundef nonnull align 8 dereferenceable(8) %7) #16
  br label %55

48:                                               ; preds = %38
  br label %49

49:                                               ; preds = %48, %20
  store i32 0, ptr %11, align 4
  br label %50

50:                                               ; preds = %49, %39
  call void @_ZN8pybind116objectD2Ev(ptr noundef nonnull align 8 dereferenceable(8) %7) #16
  %51 = load i32, ptr %11, align 4
  switch i32 %51, label %60 [
    i32 0, label %52
    i32 1, label %53
  ]

52:                                               ; preds = %50
  store i1 false, ptr %3, align 1
  br label %53

53:                                               ; preds = %52, %50, %19
  %54 = load i1, ptr %3, align 1
  ret i1 %54

55:                                               ; preds = %44
  %56 = load ptr, ptr %9, align 8
  %57 = load i32, ptr %10, align 4
  %58 = insertvalue { ptr, i32 } poison, ptr %56, 0
  %59 = insertvalue { ptr, i32 } %58, i32 %57, 1
  resume { ptr, i32 } %59

60:                                               ; preds = %50
  unreachable
}