; Function Attrs: mustprogress uwtable
define internal noundef zeroext i1 @_ZN8pybind116detail21npy_format_descriptorIZ27test_submodule_numpy_dtypesRNS_7module_EE21TrailingPaddingStructvE16direct_converterEP7_objectRPv(ptr noundef %0, ptr nocapture noundef nonnull writeonly align 8 dereferenceable(8) %1) #1 align 2 personality ptr @__gxx_personality_v0 {
  %3 = alloca %"class.pybind11::object", align 8
  %4 = tail call noundef nonnull align 8 dereferenceable(157) ptr @_ZN8pybind1128gil_safe_call_once_and_storeINS_6detail7npy_apiEE26call_once_and_store_resultIRFS2_vEEERS3_OT_(ptr noundef nonnull align 8 dereferenceable(157) @_ZZN8pybind116detail7npy_api3getEvE7storage, ptr noundef nonnull @_ZN8pybind116detail7npy_api6lookupEv)
  %5 = getelementptr inbounds i8, ptr %4, i64 56
  %6 = load ptr, ptr %5, align 8
  %7 = getelementptr i8, ptr %0, i64 8
  %.val = load ptr, ptr %7, align 8
  %.not.i = icmp eq ptr %.val, %6
  br i1 %.not.i, label %_ZL19_PyObject_TypeCheckP7_objectP11_typeobject.exit.thread, label %_ZL19_PyObject_TypeCheckP7_objectP11_typeobject.exit

_ZL19_PyObject_TypeCheckP7_objectP11_typeobject.exit: ; preds = %2
  %8 = tail call i32 @PyType_IsSubtype(ptr noundef %.val, ptr noundef %6)
  %.not18 = icmp eq i32 %8, 0
  br i1 %.not18, label %45, label %_ZL19_PyObject_TypeCheckP7_objectP11_typeobject.exit.thread

_ZL19_PyObject_TypeCheckP7_objectP11_typeobject.exit.thread: ; preds = %2, %_ZL19_PyObject_TypeCheckP7_objectP11_typeobject.exit
  %9 = getelementptr inbounds i8, ptr %4, i64 72
  %10 = load ptr, ptr %9, align 8
  %11 = tail call noundef ptr %10(ptr noundef nonnull %0)
  store ptr %11, ptr %3, align 8, !alias.scope !2047
  %.not = icmp eq ptr %11, null
  br i1 %.not, label %_ZN8pybind116objectD2Ev.exit.thread, label %12

12:                                               ; preds = %_ZL19_PyObject_TypeCheckP7_objectP11_typeobject.exit.thread
  %13 = getelementptr inbounds i8, ptr %4, i64 96
  %14 = load ptr, ptr %13, align 8
  %15 = load atomic i8, ptr @_ZGVZN8pybind116detail21npy_format_descriptorIZ27test_submodule_numpy_dtypesRNS_7module_EE21TrailingPaddingStructvE9dtype_ptrEvE3ptr acquire, align 8
  %16 = icmp eq i8 %15, 0
  br i1 %16, label %17, label %27, !prof !204

17:                                               ; preds = %12
  %18 = tail call i32 @__cxa_guard_acquire(ptr nonnull @_ZGVZN8pybind116detail21npy_format_descriptorIZ27test_submodule_numpy_dtypesRNS_7module_EE21TrailingPaddingStructvE9dtype_ptrEvE3ptr) #24
  %.not.i11 = icmp eq i32 %18, 0
  br i1 %.not.i11, label %27, label %19

19:                                               ; preds = %17
  %20 = load ptr, ptr @_ZZN8pybind116detail19get_numpy_internalsEvE3ptr, align 8
  %.not.i.i = icmp eq ptr %20, null
  br i1 %.not.i.i, label %21, label %_ZN8pybind116detail19get_numpy_internalsEv.exit.i

21:                                               ; preds = %19
  invoke void @_ZN8pybind116detail20load_numpy_internalsERPNS0_15numpy_internalsE(ptr noundef nonnull align 8 dereferenceable(8) @_ZZN8pybind116detail19get_numpy_internalsEvE3ptr)
          to label %.noexc.i unwind label %25

.noexc.i:                                         ; preds = %21
  %.pre.i.i = load ptr, ptr @_ZZN8pybind116detail19get_numpy_internalsEvE3ptr, align 8
  br label %_ZN8pybind116detail19get_numpy_internalsEv.exit.i

_ZN8pybind116detail19get_numpy_internalsEv.exit.i: ; preds = %.noexc.i, %19
  %22 = phi ptr [ %.pre.i.i, %.noexc.i ], [ %20, %19 ]
  %23 = invoke noundef ptr @_ZN8pybind116detail15numpy_internals13get_type_infoERKSt9type_infob(ptr noundef nonnull align 8 dereferenceable(56) %22, ptr noundef nonnull align 8 dereferenceable(16) @_ZTIZ27test_submodule_numpy_dtypesRN8pybind117module_EE21TrailingPaddingStruct, i1 noundef zeroext true)
          to label %_ZN8pybind116detail15numpy_internals13get_type_infoIZ27test_submodule_numpy_dtypesRNS_7module_EE21TrailingPaddingStructEEPNS0_15numpy_type_infoEb.exit.i unwind label %25

_ZN8pybind116detail15numpy_internals13get_type_infoIZ27test_submodule_numpy_dtypesRNS_7module_EE21TrailingPaddingStructEEPNS0_15numpy_type_infoEb.exit.i: ; preds = %_ZN8pybind116detail19get_numpy_internalsEv.exit.i
  %24 = load ptr, ptr %23, align 8
  store ptr %24, ptr @_ZZN8pybind116detail21npy_format_descriptorIZ27test_submodule_numpy_dtypesRNS_7module_EE21TrailingPaddingStructvE9dtype_ptrEvE3ptr, align 8
  tail call void @__cxa_guard_release(ptr nonnull @_ZGVZN8pybind116detail21npy_format_descriptorIZ27test_submodule_numpy_dtypesRNS_7module_EE21TrailingPaddingStructvE9dtype_ptrEvE3ptr) #24
  br label %27

25:                                               ; preds = %_ZN8pybind116detail19get_numpy_internalsEv.exit.i, %21
  %26 = landingpad { ptr, i32 }
          cleanup
  tail call void @__cxa_guard_abort(ptr nonnull @_ZGVZN8pybind116detail21npy_format_descriptorIZ27test_submodule_numpy_dtypesRNS_7module_EE21TrailingPaddingStructvE9dtype_ptrEvE3ptr) #24
  br label %.body

27:                                               ; preds = %_ZN8pybind116detail15numpy_internals13get_type_infoIZ27test_submodule_numpy_dtypesRNS_7module_EE21TrailingPaddingStructEEPNS0_15numpy_type_infoEb.exit.i, %17, %12
  %28 = load ptr, ptr @_ZZN8pybind116detail21npy_format_descriptorIZ27test_submodule_numpy_dtypesRNS_7module_EE21TrailingPaddingStructvE9dtype_ptrEvE3ptr, align 8
  %29 = load ptr, ptr %3, align 8
  %30 = invoke noundef zeroext i1 %14(ptr noundef %28, ptr noundef %29)
          to label %31 unwind label %35

31:                                               ; preds = %27
  br i1 %30, label %32, label %37

32:                                               ; preds = %31
  %33 = getelementptr inbounds i8, ptr %0, i64 24
  %34 = load ptr, ptr %33, align 8
  store ptr %34, ptr %1, align 8
  br label %37

35:                                               ; preds = %27
  %36 = landingpad { ptr, i32 }
          cleanup
  br label %.body

.body:                                            ; preds = %25, %35
  %eh.lpad-body = phi { ptr, i32 } [ %36, %35 ], [ %26, %25 ]
  call void @_ZN8pybind116objectD2Ev(ptr noundef nonnull align 8 dereferenceable(8) %3) #24
  resume { ptr, i32 } %eh.lpad-body

37:                                               ; preds = %31, %32
  %.not.i.i.i = icmp eq ptr %29, null
  br i1 %.not.i.i.i, label %_ZN8pybind116objectD2Ev.exit, label %38

38:                                               ; preds = %37
  %39 = load i64, ptr %29, align 8
  %40 = add nsw i64 %39, -1
  store i64 %40, ptr %29, align 8
  %.not.i.i.i.i = icmp eq i64 %40, 0
  br i1 %.not.i.i.i.i, label %41, label %_ZN8pybind116objectD2Ev.exit

41:                                               ; preds = %38
  invoke void @_Py_Dealloc(ptr noundef nonnull %29)
          to label %_ZN8pybind116objectD2Ev.exit unwind label %42

42:                                               ; preds = %41
  %43 = landingpad { ptr, i32 }
          catch ptr null
  %44 = extractvalue { ptr, i32 } %43, 0
  tail call void @__clang_call_terminate(ptr %44) #25
  unreachable

_ZN8pybind116objectD2Ev.exit:                     ; preds = %37, %38, %41
  br i1 %30, label %45, label %_ZN8pybind116objectD2Ev.exit.thread

_ZN8pybind116objectD2Ev.exit.thread:              ; preds = %_ZL19_PyObject_TypeCheckP7_objectP11_typeobject.exit.thread, %_ZN8pybind116objectD2Ev.exit
  br label %45

45:                                               ; preds = %_ZN8pybind116objectD2Ev.exit.thread, %_ZN8pybind116objectD2Ev.exit, %_ZL19_PyObject_TypeCheckP7_objectP11_typeobject.exit
  %.1 = phi i1 [ false, %_ZL19_PyObject_TypeCheckP7_objectP11_typeobject.exit ], [ false, %_ZN8pybind116objectD2Ev.exit.thread ], [ true, %_ZN8pybind116objectD2Ev.exit ]
  ret i1 %.1
}